target datalayout = "e-m:e-p270:32:32-p271:32:32-p272:64:64-i64:64-i128:128-f80:128-n8:16:32:64-S128"
target triple = "x86_64-pc-linux-gnu"

%struct.AVFilterContext = type { ptr, ptr, ptr, ptr, ptr, i32, ptr, ptr, i32, ptr, ptr, i32, i32, ptr, ptr, ptr, ptr, i32, ptr, i32, i32 }
%struct.DBlurContext = type { ptr, float, float, i32, float, float, float, float, float, i32, [4 x i32], [4 x i32], ptr, i32 }
%struct.AVFilterLink = type { ptr, ptr, ptr, ptr, i32, i32, i32, i32, %struct.AVRational, i32, i32, i32, %struct.AVChannelLayout, %struct.AVRational, ptr, i32, %struct.AVFilterFormatsConfig, %struct.AVFilterFormatsConfig }
%struct.AVChannelLayout = type { i32, i32, %union.anon.1, ptr }
%union.anon.1 = type { i64 }
%struct.AVRational = type { i32, i32 }
%struct.AVFilterFormatsConfig = type { ptr, ptr, ptr, ptr, ptr }
%struct.AVPixFmtDescriptor = type { ptr, i8, i8, i8, i64, [4 x %struct.AVComponentDescriptor], ptr }
%struct.AVComponentDescriptor = type { i32, i32, i32, i32, i32 }

; Function Attrs: cold nounwind optsize uwtable
define internal void @uninit(ptr noundef %0) #0 {
  %2 = alloca ptr, align 8
  %3 = alloca ptr, align 8
  store ptr %0, ptr %2, align 8, !tbaa !4
  call void @llvm.lifetime.start.p0(i64 8, ptr %3) #8
  %4 = load ptr, ptr %2, align 8, !tbaa !4
  %5 = getelementptr inbounds nuw %struct.AVFilterContext, ptr %4, i32 0, i32 9
  %6 = load ptr, ptr %5, align 8, !tbaa !9
  store ptr %6, ptr %3, align 8, !tbaa !22
  %7 = load ptr, ptr %3, align 8, !tbaa !22
  %8 = getelementptr inbounds nuw %struct.DBlurContext, ptr %7, i32 0, i32 12
  call void @av_freep(ptr noundef %8)
  call void @llvm.lifetime.end.p0(i64 8, ptr %3) #8
  ret void
}

; Function Attrs: nounwind uwtable
define internal i32 @config_input(ptr noundef %0) #2 {
  %2 = alloca i32, align 4
  %3 = alloca ptr, align 8
  %4 = alloca ptr, align 8
  %5 = alloca ptr, align 8
  %6 = alloca i32, align 4
  store ptr %0, ptr %3, align 8, !tbaa !24
  call void @llvm.lifetime.start.p0(i64 8, ptr %4) #8
  %7 = load ptr, ptr %3, align 8, !tbaa !24
  %8 = getelementptr inbounds nuw %struct.AVFilterLink, ptr %7, i32 0, i32 5
  %9 = load i32, ptr %8, align 4, !tbaa !71
  %10 = call ptr @av_pix_fmt_desc_get(i32 noundef %9)
  store ptr %10, ptr %4, align 8, !tbaa !72
  call void @llvm.lifetime.start.p0(i64 8, ptr %5) #8
  %11 = load ptr, ptr %3, align 8, !tbaa !24
  %12 = getelementptr inbounds nuw %struct.AVFilterLink, ptr %11, i32 0, i32 2
  %13 = load ptr, ptr %12, align 8, !tbaa !28
  %14 = getelementptr inbounds nuw %struct.AVFilterContext, ptr %13, i32 0, i32 9
  %15 = load ptr, ptr %14, align 8, !tbaa !9
  store ptr %15, ptr %5, align 8, !tbaa !22
  %16 = load ptr, ptr %3, align 8, !tbaa !24
  %17 = getelementptr inbounds nuw %struct.AVFilterLink, ptr %16, i32 0, i32 2
  %18 = load ptr, ptr %17, align 8, !tbaa !28
  call void @uninit(ptr noundef %18) #10
  %19 = load ptr, ptr %4, align 8, !tbaa !72
  %20 = getelementptr inbounds nuw %struct.AVPixFmtDescriptor, ptr %19, i32 0, i32 5
  %21 = getelementptr inbounds [4 x %struct.AVComponentDescriptor], ptr %20, i64 0, i64 0
  %22 = getelementptr inbounds nuw %struct.AVComponentDescriptor, ptr %21, i32 0, i32 4
  %23 = load i32, ptr %22, align 8, !tbaa !74
  %24 = load ptr, ptr %5, align 8, !tbaa !22
  %25 = getelementptr inbounds nuw %struct.DBlurContext, ptr %24, i32 0, i32 9
  store i32 %23, ptr %25, align 8, !tbaa !52
  %26 = load ptr, ptr %4, align 8, !tbaa !72
  %27 = getelementptr inbounds nuw %struct.AVPixFmtDescriptor, ptr %26, i32 0, i32 2
  %28 = load i8, ptr %27, align 1, !tbaa !76
  %29 = call i1 @llvm.is.constant.i8(i8 %28)
  br i1 %29, label %41, label %30

30:                                               ; preds = %1
  %31 = load ptr, ptr %3, align 8, !tbaa !24
  %32 = getelementptr inbounds nuw %struct.AVFilterLink, ptr %31, i32 0, i32 6
  %33 = load i32, ptr %32, align 8, !tbaa !42
  %34 = sub nsw i32 0, %33
  %35 = load ptr, ptr %4, align 8, !tbaa !72
  %36 = getelementptr inbounds nuw %struct.AVPixFmtDescriptor, ptr %35, i32 0, i32 2
  %37 = load i8, ptr %36, align 1, !tbaa !76
  %38 = zext i8 %37 to i32
  %39 = ashr i32 %34, %38
  %40 = sub nsw i32 0, %39
  br label %57

41:                                               ; preds = %1
  %42 = load ptr, ptr %3, align 8, !tbaa !24
  %43 = getelementptr inbounds nuw %struct.AVFilterLink, ptr %42, i32 0, i32 6
  %44 = load i32, ptr %43, align 8, !tbaa !42
  %45 = load ptr, ptr %4, align 8, !tbaa !72
  %46 = getelementptr inbounds nuw %struct.AVPixFmtDescriptor, ptr %45, i32 0, i32 2
  %47 = load i8, ptr %46, align 1, !tbaa !76
  %48 = zext i8 %47 to i32
  %49 = shl i32 1, %48
  %50 = add nsw i32 %44, %49
  %51 = sub nsw i32 %50, 1
  %52 = load ptr, ptr %4, align 8, !tbaa !72
  %53 = getelementptr inbounds nuw %struct.AVPixFmtDescriptor, ptr %52, i32 0, i32 2
  %54 = load i8, ptr %53, align 1, !tbaa !76
  %55 = zext i8 %54 to i32
  %56 = ashr i32 %51, %55
  br label %57

57:                                               ; preds = %41, %30
  %58 = phi i32 [ %40, %30 ], [ %56, %41 ]
  %59 = load ptr, ptr %5, align 8, !tbaa !22
  %60 = getelementptr inbounds nuw %struct.DBlurContext, ptr %59, i32 0, i32 10
  %61 = getelementptr inbounds [4 x i32], ptr %60, i64 0, i64 2
  store i32 %58, ptr %61, align 4, !tbaa !44
  %62 = load ptr, ptr %5, align 8, !tbaa !22
  %63 = getelementptr inbounds nuw %struct.DBlurContext, ptr %62, i32 0, i32 10
  %64 = getelementptr inbounds [4 x i32], ptr %63, i64 0, i64 1
  store i32 %58, ptr %64, align 4, !tbaa !44
  %65 = load ptr, ptr %3, align 8, !tbaa !24
  %66 = getelementptr inbounds nuw %struct.AVFilterLink, ptr %65, i32 0, i32 6
  %67 = load i32, ptr %66, align 8, !tbaa !42
  %68 = load ptr, ptr %5, align 8, !tbaa !22
  %69 = getelementptr inbounds nuw %struct.DBlurContext, ptr %68, i32 0, i32 10
  %70 = getelementptr inbounds [4 x i32], ptr %69, i64 0, i64 3
  store i32 %67, ptr %70, align 4, !tbaa !44
  %71 = load ptr, ptr %5, align 8, !tbaa !22
  %72 = getelementptr inbounds nuw %struct.DBlurContext, ptr %71, i32 0, i32 10
  %73 = getelementptr inbounds [4 x i32], ptr %72, i64 0, i64 0
  store i32 %67, ptr %73, align 4, !tbaa !44
  %74 = load ptr, ptr %4, align 8, !tbaa !72
  %75 = getelementptr inbounds nuw %struct.AVPixFmtDescriptor, ptr %74, i32 0, i32 3
  %76 = load i8, ptr %75, align 2, !tbaa !79
  %77 = call i1 @llvm.is.constant.i8(i8 %76)
  br i1 %77, label %89, label %78

78:                                               ; preds = %57
  %79 = load ptr, ptr %3, align 8, !tbaa !24
  %80 = getelementptr inbounds nuw %struct.AVFilterLink, ptr %79, i32 0, i32 7
  %81 = load i32, ptr %80, align 4, !tbaa !43
  %82 = sub nsw i32 0, %81
  %83 = load ptr, ptr %4, align 8, !tbaa !72
  %84 = getelementptr inbounds nuw %struct.AVPixFmtDescriptor, ptr %83, i32 0, i32 3
  %85 = load i8, ptr %84, align 2, !tbaa !79
  %86 = zext i8 %85 to i32
  %87 = ashr i32 %82, %86
  %88 = sub nsw i32 0, %87
  br label %105

89:                                               ; preds = %57
  %90 = load ptr, ptr %3, align 8, !tbaa !24
  %91 = getelementptr inbounds nuw %struct.AVFilterLink, ptr %90, i32 0, i32 7
  %92 = load i32, ptr %91, align 4, !tbaa !43
  %93 = load ptr, ptr %4, align 8, !tbaa !72
  %94 = getelementptr inbounds nuw %struct.AVPixFmtDescriptor, ptr %93, i32 0, i32 3
  %95 = load i8, ptr %94, align 2, !tbaa !79
  %96 = zext i8 %95 to i32
  %97 = shl i32 1, %96
  %98 = add nsw i32 %92, %97
  %99 = sub nsw i32 %98, 1
  %100 = load ptr, ptr %4, align 8, !tbaa !72
  %101 = getelementptr inbounds nuw %struct.AVPixFmtDescriptor, ptr %100, i32 0, i32 3
  %102 = load i8, ptr %101, align 2, !tbaa !79
  %103 = zext i8 %102 to i32
  %104 = ashr i32 %99, %103
  br label %105

105:                                              ; preds = %89, %78
  %106 = phi i32 [ %88, %78 ], [ %104, %89 ]
  %107 = load ptr, ptr %5, align 8, !tbaa !22
  %108 = getelementptr inbounds nuw %struct.DBlurContext, ptr %107, i32 0, i32 11
  %109 = getelementptr inbounds [4 x i32], ptr %108, i64 0, i64 2
  store i32 %106, ptr %109, align 4, !tbaa !44
  %110 = load ptr, ptr %5, align 8, !tbaa !22
  %111 = getelementptr inbounds nuw %struct.DBlurContext, ptr %110, i32 0, i32 11
  %112 = getelementptr inbounds [4 x i32], ptr %111, i64 0, i64 1
  store i32 %106, ptr %112, align 4, !tbaa !44
  %113 = load ptr, ptr %3, align 8, !tbaa !24
  %114 = getelementptr inbounds nuw %struct.AVFilterLink, ptr %113, i32 0, i32 7
  %115 = load i32, ptr %114, align 4, !tbaa !43
  %116 = load ptr, ptr %5, align 8, !tbaa !22
  %117 = getelementptr inbounds nuw %struct.DBlurContext, ptr %116, i32 0, i32 11
  %118 = getelementptr inbounds [4 x i32], ptr %117, i64 0, i64 3
  store i32 %115, ptr %118, align 4, !tbaa !44
  %119 = load ptr, ptr %5, align 8, !tbaa !22
  %120 = getelementptr inbounds nuw %struct.DBlurContext, ptr %119, i32 0, i32 11
  %121 = getelementptr inbounds [4 x i32], ptr %120, i64 0, i64 0
  store i32 %115, ptr %121, align 4, !tbaa !44
  %122 = load ptr, ptr %3, align 8, !tbaa !24
  %123 = getelementptr inbounds nuw %struct.AVFilterLink, ptr %122, i32 0, i32 5
  %124 = load i32, ptr %123, align 4, !tbaa !71
  %125 = call i32 @av_pix_fmt_count_planes(i32 noundef %124)
  %126 = load ptr, ptr %5, align 8, !tbaa !22
  %127 = getelementptr inbounds nuw %struct.DBlurContext, ptr %126, i32 0, i32 13
  store i32 %125, ptr %127, align 8, !tbaa !45
  %128 = load ptr, ptr %3, align 8, !tbaa !24
  %129 = getelementptr inbounds nuw %struct.AVFilterLink, ptr %128, i32 0, i32 6
  %130 = load i32, ptr %129, align 8, !tbaa !42
  %131 = add nsw i32 %130, 16
  %132 = sub nsw i32 %131, 1
  %133 = and i32 %132, -16
  %134 = sext i32 %133 to i64
  %135 = load ptr, ptr %3, align 8, !tbaa !24
  %136 = getelementptr inbounds nuw %struct.AVFilterLink, ptr %135, i32 0, i32 7
  %137 = load i32, ptr %136, align 4, !tbaa !43
  %138 = add nsw i32 %137, 16
  %139 = sub nsw i32 %138, 1
  %140 = and i32 %139, -16
  %141 = sext i32 %140 to i64
  %142 = mul i64 %141, 4
  %143 = call ptr @av_malloc_array(i64 noundef %134, i64 noundef %142)
  %144 = load ptr, ptr %5, align 8, !tbaa !22
  %145 = getelementptr inbounds nuw %struct.DBlurContext, ptr %144, i32 0, i32 12
  store ptr %143, ptr %145, align 8, !tbaa !46
  %146 = load ptr, ptr %5, align 8, !tbaa !22
  %147 = getelementptr inbounds nuw %struct.DBlurContext, ptr %146, i32 0, i32 12
  %148 = load ptr, ptr %147, align 8, !tbaa !46
  %149 = icmp ne ptr %148, null
  br i1 %149, label %151, label %150

150:                                              ; preds = %105
  store i32 -12, ptr %2, align 4
  store i32 1, ptr %6, align 4
  br label %152

151:                                              ; preds = %105
  store i32 0, ptr %2, align 4
  store i32 1, ptr %6, align 4
  br label %152

152:                                              ; preds = %151, %150
  call void @llvm.lifetime.end.p0(i64 8, ptr %5) #8
  call void @llvm.lifetime.end.p0(i64 8, ptr %4) #8
  %153 = load i32, ptr %2, align 4
  ret i32 %153
}