; Function Attrs: nounwind uwtable
define internal range(i32 -12, 1) i32 @config_input(ptr noundef readonly captures(none) %0) #2 {
  %2 = getelementptr inbounds nuw i8, ptr %0, i64 36
  %3 = load i32, ptr %2, align 4, !tbaa !78
  %4 = tail call ptr @av_pix_fmt_desc_get(i32 noundef %3) #5
  %5 = getelementptr inbounds nuw i8, ptr %0, i64 16
  %6 = load ptr, ptr %5, align 8, !tbaa !22
  %7 = getelementptr inbounds nuw i8, ptr %6, i64 72
  %8 = load ptr, ptr %7, align 8, !tbaa !4
  %9 = getelementptr inbounds nuw i8, ptr %8, i64 80
  tail call void @av_freep(ptr noundef nonnull %9) #5
  %10 = getelementptr inbounds nuw i8, ptr %4, i64 40
  %11 = load i32, ptr %10, align 8, !tbaa !79
  %12 = getelementptr inbounds nuw i8, ptr %8, i64 40
  store i32 %11, ptr %12, align 8, !tbaa !51
  %13 = getelementptr inbounds nuw i8, ptr %0, i64 40
  %14 = load i32, ptr %13, align 8, !tbaa !44
  %15 = sub nsw i32 0, %14
  %16 = getelementptr inbounds nuw i8, ptr %4, i64 9
  %17 = load i8, ptr %16, align 1, !tbaa !81
  %18 = zext nneg i8 %17 to i32
  %19 = ashr i32 %15, %18
  %20 = sub nsw i32 0, %19
  %21 = getelementptr inbounds nuw i8, ptr %8, i64 44
  %22 = getelementptr inbounds nuw i8, ptr %8, i64 52
  store i32 %20, ptr %22, align 4, !tbaa !47
  %23 = getelementptr inbounds nuw i8, ptr %8, i64 48
  store i32 %20, ptr %23, align 4, !tbaa !47
  %24 = getelementptr inbounds nuw i8, ptr %0, i64 40
  %25 = load i32, ptr %24, align 8, !tbaa !44
  %26 = getelementptr inbounds nuw i8, ptr %8, i64 56
  store i32 %25, ptr %26, align 4, !tbaa !47
  store i32 %25, ptr %21, align 4, !tbaa !47
  %27 = getelementptr inbounds nuw i8, ptr %0, i64 44
  %28 = load i32, ptr %27, align 4, !tbaa !45
  %29 = sub nsw i32 0, %28
  %30 = getelementptr inbounds nuw i8, ptr %4, i64 10
  %31 = load i8, ptr %30, align 2, !tbaa !84
  %32 = zext nneg i8 %31 to i32
  %33 = ashr i32 %29, %32
  %34 = sub nsw i32 0, %33
  %35 = getelementptr inbounds nuw i8, ptr %8, i64 60
  %36 = getelementptr inbounds nuw i8, ptr %8, i64 68
  store i32 %34, ptr %36, align 4, !tbaa !47
  %37 = getelementptr inbounds nuw i8, ptr %8, i64 64
  store i32 %34, ptr %37, align 4, !tbaa !47
  %38 = getelementptr inbounds nuw i8, ptr %0, i64 44
  %39 = load i32, ptr %38, align 4, !tbaa !45
  %40 = getelementptr inbounds nuw i8, ptr %8, i64 72
  store i32 %39, ptr %40, align 4, !tbaa !47
  store i32 %39, ptr %35, align 4, !tbaa !47
  %41 = load i32, ptr %2, align 4, !tbaa !78
  %42 = tail call i32 @av_pix_fmt_count_planes(i32 noundef %41) #5
  %43 = getelementptr inbounds nuw i8, ptr %8, i64 88
  store i32 %42, ptr %43, align 8, !tbaa !46
  %44 = load i32, ptr %24, align 8, !tbaa !44
  %45 = add nsw i32 %44, 15
  %46 = and i32 %45, -16
  %47 = sext i32 %46 to i64
  %48 = load i32, ptr %38, align 4, !tbaa !45
  %49 = add nsw i32 %48, 15
  %50 = and i32 %49, -16
  %51 = sext i32 %50 to i64
  %52 = shl nsw i64 %51, 2
  %53 = tail call ptr @av_malloc_array(i64 noundef %47, i64 noundef %52) #5
  store ptr %53, ptr %9, align 8, !tbaa !48
  %.not = icmp eq ptr %53, null
  %. = select i1 %.not, i32 -12, i32 0
  ret i32 %.
}